	.cpu arm7tdmi
	.fpu softvfp
	.eabi_attribute 20, 1
	.eabi_attribute 21, 1
	.eabi_attribute 23, 3
	.eabi_attribute 24, 1
	.eabi_attribute 25, 1
	.eabi_attribute 26, 1
	.eabi_attribute 30, 6
	.eabi_attribute 34, 0
	.eabi_attribute 18, 4
	.file	"prog.c"
	.text
.Ltext0:
	.cfi_sections	.debug_frame
	.align	2
	.global	factorial
	.type	factorial, %function
factorial:
.LFB0:
	.file 1 "../sw/c/prog.c"
	.loc 1 2 0
	.cfi_startproc
	@ Function supports interworking.
	@ args = 0, pretend = 0, frame = 8
	@ frame_needed = 1, uses_anonymous_args = 0
	stmfd	sp!, {r4, fp, lr}
	.cfi_def_cfa_offset 12
	.cfi_offset 4, -12
	.cfi_offset 11, -8
	.cfi_offset 14, -4
	add	fp, sp, #8
	.cfi_def_cfa 11, 4
	sub	sp, sp, #12
	.loc 1 3 0
	mov	r3, #500
	str	r3, [fp, #-16]
	.loc 1 4 0
	ldr	r3, [fp, #-16]
	mov	r2, #5
	str	r2, [r3]
	.loc 1 5 0
	ldr	r3, [fp, #-16]
	add	r4, r3, #4
	ldr	r3, [fp, #-16]
	ldr	r3, [r3]
	mov	r0, r3
	bl	fact
	mov	r3, r0
	str	r3, [r4]
.L2:
	.loc 1 6 0 discriminator 1
	b	.L2
	.cfi_endproc
.LFE0:
	.size	factorial, .-factorial
	.align	2
	.global	fact
	.type	fact, %function
fact:
.LFB1:
	.loc 1 10 0
	.cfi_startproc
	@ Function supports interworking.
	@ args = 0, pretend = 0, frame = 8
	@ frame_needed = 1, uses_anonymous_args = 0
	stmfd	sp!, {fp, lr}
	.cfi_def_cfa_offset 8
	.cfi_offset 11, -8
	.cfi_offset 14, -4
	add	fp, sp, #4
	.cfi_def_cfa 11, 4
	sub	sp, sp, #8
	str	r0, [fp, #-8]
	.loc 1 11 0
	ldr	r3, [fp, #-8]
	cmp	r3, #0
	bne	.L4
	.loc 1 12 0
	mov	r3, #1
	b	.L5
.L4:
	.loc 1 14 0
	ldr	r3, [fp, #-8]
	sub	r3, r3, #1
	mov	r0, r3
	bl	fact
	mov	r3, r0
	ldr	r2, [fp, #-8]
	mul	r3, r2, r3
.L5:
	.loc 1 15 0
	mov	r0, r3
	sub	sp, fp, #4
	@ sp needed
	ldmfd	sp!, {fp, lr}
	bx	lr
	.cfi_endproc
.LFE1:
	.size	fact, .-fact
	.align	2
	.global	__undef
	.type	__undef, %function
__undef:
.LFB2:
	.loc 1 17 0
	.cfi_startproc
	@ Function supports interworking.
	@ args = 0, pretend = 0, frame = 0
	@ frame_needed = 1, uses_anonymous_args = 0
	@ link register save eliminated.
	str	fp, [sp, #-4]!
	.cfi_def_cfa_offset 4
	.cfi_offset 11, -4
	add	fp, sp, #0
	.cfi_def_cfa_register 11
	.loc 1 18 0
	mov	r0, r0	@ nop
	.loc 1 19 0
	sub	sp, fp, #0
	@ sp needed
	ldr	fp, [sp], #4
	bx	lr
	.cfi_endproc
.LFE2:
	.size	__undef, .-__undef
	.align	2
	.global	__swi
	.type	__swi, %function
__swi:
.LFB3:
	.loc 1 21 0
	.cfi_startproc
	@ Function supports interworking.
	@ args = 0, pretend = 0, frame = 0
	@ frame_needed = 1, uses_anonymous_args = 0
	@ link register save eliminated.
	str	fp, [sp, #-4]!
	.cfi_def_cfa_offset 4
	.cfi_offset 11, -4
	add	fp, sp, #0
	.cfi_def_cfa_register 11
	.loc 1 22 0
	mov	r0, r0	@ nop
	.loc 1 23 0
	sub	sp, fp, #0
	@ sp needed
	ldr	fp, [sp], #4
	bx	lr
	.cfi_endproc
.LFE3:
	.size	__swi, .-__swi
	.align	2
	.global	__pabt
	.type	__pabt, %function
__pabt:
.LFB4:
	.loc 1 25 0
	.cfi_startproc
	@ Function supports interworking.
	@ args = 0, pretend = 0, frame = 0
	@ frame_needed = 1, uses_anonymous_args = 0
	@ link register save eliminated.
	str	fp, [sp, #-4]!
	.cfi_def_cfa_offset 4
	.cfi_offset 11, -4
	add	fp, sp, #0
	.cfi_def_cfa_register 11
	.loc 1 26 0
	mov	r0, r0	@ nop
	.loc 1 27 0
	sub	sp, fp, #0
	@ sp needed
	ldr	fp, [sp], #4
	bx	lr
	.cfi_endproc
.LFE4:
	.size	__pabt, .-__pabt
	.align	2
	.global	__dabt
	.type	__dabt, %function
__dabt:
.LFB5:
	.loc 1 29 0
	.cfi_startproc
	@ Function supports interworking.
	@ args = 0, pretend = 0, frame = 0
	@ frame_needed = 1, uses_anonymous_args = 0
	@ link register save eliminated.
	str	fp, [sp, #-4]!
	.cfi_def_cfa_offset 4
	.cfi_offset 11, -4
	add	fp, sp, #0
	.cfi_def_cfa_register 11
	.loc 1 30 0
	mov	r0, r0	@ nop
	.loc 1 31 0
	sub	sp, fp, #0
	@ sp needed
	ldr	fp, [sp], #4
	bx	lr
	.cfi_endproc
.LFE5:
	.size	__dabt, .-__dabt
	.align	2
	.global	__irq
	.type	__irq, %function
__irq:
.LFB6:
	.loc 1 33 0
	.cfi_startproc
	@ Function supports interworking.
	@ args = 0, pretend = 0, frame = 0
	@ frame_needed = 1, uses_anonymous_args = 0
	@ link register save eliminated.
	str	fp, [sp, #-4]!
	.cfi_def_cfa_offset 4
	.cfi_offset 11, -4
	add	fp, sp, #0
	.cfi_def_cfa_register 11
	.loc 1 34 0
	mov	r0, r0	@ nop
	.loc 1 35 0
	sub	sp, fp, #0
	@ sp needed
	ldr	fp, [sp], #4
	bx	lr
	.cfi_endproc
.LFE6:
	.size	__irq, .-__irq
	.align	2
	.global	__fiq
	.type	__fiq, %function
__fiq:
.LFB7:
	.loc 1 37 0
	.cfi_startproc
	@ Function supports interworking.
	@ args = 0, pretend = 0, frame = 0
	@ frame_needed = 1, uses_anonymous_args = 0
	@ link register save eliminated.
	str	fp, [sp, #-4]!
	.cfi_def_cfa_offset 4
	.cfi_offset 11, -4
	add	fp, sp, #0
	.cfi_def_cfa_register 11
	.loc 1 38 0
	mov	r0, r0	@ nop
	.loc 1 39 0
	sub	sp, fp, #0
	@ sp needed
	ldr	fp, [sp], #4
	bx	lr
	.cfi_endproc
.LFE7:
	.size	__fiq, .-__fiq
.Letext0: